target datalayout = "e-m:e-p270:32:32-p271:32:32-p272:64:64-i64:64-i128:128-f80:128-n8:16:32:64-S128"
target triple = "x86_64-pc-linux-gnu"

%struct.reassembly_table = type { ptr, ptr, ptr, ptr, ptr }
%struct.reassembly_table_functions = type { ptr, ptr, ptr, ptr, ptr, ptr }

@proto_register_btmesh_proxy.ett = internal global [5 x ptr] [ptr @ett_btmesh_proxy, ptr @ett_btmesh_proxy_network_pdu, ptr @ett_btmesh_proxy_transport_pdu, ptr @ett_btmesh_proxy_fragments, ptr @ett_btmesh_proxy_fragment], align 16
@.str.74 = private unnamed_addr constant [21 x i8] c"Bluetooth Mesh Proxy\00", align 1
@.str.75 = private unnamed_addr constant [14 x i8] c"BT Mesh proxy\00", align 1
@.str.76 = private unnamed_addr constant [9 x i8] c"btmproxy\00", align 1
@proto_btmesh_proxy = internal global i32 0, align 4
@.str.77 = private unnamed_addr constant [10 x i8] c"Bluetooth\00", align 1
@.str.78 = private unnamed_addr constant [13 x i8] c"btmesh.proxy\00", align 1
@connection_info_tree = internal global ptr null, align 8
@proxy_reassembly_table = internal global %struct.reassembly_table zeroinitializer, align 8
@addresses_reassembly_table_functions = external constant %struct.reassembly_table_functions, align 8

; Function Attrs: null_pointer_is_valid sspstrong uwtable
define hidden void @proto_register_btmesh_proxy() #0 {
  %1 = alloca ptr, align 8
  call void @llvm.lifetime.start.p0(i64 8, ptr %1) #5
  %2 = call i32 @proto_register_protocol(ptr noundef @.str.74, ptr noundef @.str.75, ptr noundef @.str.76)
  store i32 %2, ptr @proto_btmesh_proxy, align 4
  %3 = load i32, ptr @proto_btmesh_proxy, align 4
  call void @proto_register_field_array(i32 noundef %3, ptr noundef @proto_register_btmesh_proxy.hf, i32 noundef 27)
  call void @proto_register_subtree_array(ptr noundef @proto_register_btmesh_proxy.ett, i32 noundef 5)
  %4 = load i32, ptr @proto_btmesh_proxy, align 4
  %5 = call ptr @expert_register_protocol(i32 noundef %4)
  store ptr %5, ptr %1, align 8
  %6 = load ptr, ptr %1, align 8
  call void @expert_register_field_array(ptr noundef %6, ptr noundef @proto_register_btmesh_proxy.ei, i32 noundef 7)
  %7 = load i32, ptr @proto_btmesh_proxy, align 4
  %8 = call ptr @prefs_register_protocol_subtree(ptr noundef @.str.77, i32 noundef %7, ptr noundef null)
  %9 = load i32, ptr @proto_btmesh_proxy, align 4
  %10 = call ptr @register_dissector(ptr noundef @.str.78, ptr noundef @dissect_btmesh_proxy_msg, i32 noundef %9)
  %11 = call ptr @wmem_epan_scope()
  %12 = call ptr @wmem_file_scope()
  %13 = call noalias ptr @wmem_tree_new_autoreset(ptr noundef %11, ptr noundef %12)
  store ptr %13, ptr @connection_info_tree, align 8
  call void @register_init_routine(ptr noundef @proxy_init_routine)
  call void @register_cleanup_routine(ptr noundef @proxy_cleanup_dissector)
  call void @reassembly_table_register(ptr noundef @proxy_reassembly_table, ptr noundef @addresses_reassembly_table_functions)
  call void @llvm.lifetime.end.p0(i64 8, ptr %1) #5
  ret void
}