; Function Attrs: null_pointer_is_valid sspstrong uwtable
define hidden void @proto_register_btmesh_proxy() local_unnamed_addr #0 {
  %1 = tail call i32 @proto_register_protocol(ptr noundef nonnull @.str.74, ptr noundef nonnull @.str.75, ptr noundef nonnull @.str.76)
  store i32 %1, ptr @proto_btmesh_proxy, align 4
  tail call void @proto_register_field_array(i32 noundef %1, ptr noundef nonnull @proto_register_btmesh_proxy.hf, i32 noundef 27)
  tail call void @proto_register_subtree_array(ptr noundef nonnull @proto_register_btmesh_proxy.ett, i32 noundef 5)
  %2 = load i32, ptr @proto_btmesh_proxy, align 4
  %3 = tail call ptr @expert_register_protocol(i32 noundef %2)
  tail call void @expert_register_field_array(ptr noundef %3, ptr noundef nonnull @proto_register_btmesh_proxy.ei, i32 noundef 7)
  %4 = load i32, ptr @proto_btmesh_proxy, align 4
  %5 = tail call ptr @prefs_register_protocol_subtree(ptr noundef nonnull @.str.77, i32 noundef %4, ptr noundef null)
  %6 = load i32, ptr @proto_btmesh_proxy, align 4
  %7 = tail call ptr @register_dissector(ptr noundef nonnull @.str.78, ptr noundef nonnull @dissect_btmesh_proxy_msg, i32 noundef %6)
  %8 = tail call ptr @wmem_epan_scope()
  %9 = tail call ptr @wmem_file_scope()
  %10 = tail call noalias ptr @wmem_tree_new_autoreset(ptr noundef %8, ptr noundef %9)
  store ptr %10, ptr @connection_info_tree, align 8
  tail call void @register_init_routine(ptr noundef nonnull @proxy_init_routine)
  tail call void @register_cleanup_routine(ptr noundef nonnull @proxy_cleanup_dissector)
  tail call void @reassembly_table_register(ptr noundef nonnull @proxy_reassembly_table, ptr noundef nonnull @addresses_reassembly_table_functions)
  ret void
}